IN: Reset_Handler
IN: SystemInit
IN: _GLOBAL__sub_I__ZN12MicroBitFont11defaultFontE
IN: _GLOBAL__sub_I__ZN12PacketBuffer11EmptyPacketE
IN: _GLOBAL__sub_I__ZN13ManagedString9initEmptyEv
IN: _GLOBAL__sub_I__ZN13MicroBitImage10EmptyImageE
IN: _GLOBAL__sub_I__ZN23MicroPythonEventHandlerC2Ev
IN: _GLOBAL__sub_I_ubit_display
IN: _GLOBAL__sub_I_ubit_serial
IN: _Z11update_timev
IN: _Z15microbit_mallocj
IN: _Z17system_timer_initi
IN: _Z20microbit_seed_randomv
IN: _Z23system_timer_set_periodi
IN: _Z26system_timer_add_componentP17MicroBitComponent
IN: _Z28system_timer_current_time_usv
IN: _Z6memclrPvj
IN: _ZL16isReadOnlyInlineP10RefCounted
IN: _ZL33microbit_compass_calibration_pagev
IN: _ZN10EventModel3addEP16MicroBitListener
IN: _ZN10RefCounted4incrEv
IN: _ZN10RefCounted4initEv
IN: _ZN11MicroBitI2C5writeEiPKcib
IN: _ZN11MicroBitI2CC1E7PinNameS0_
IN: _ZN12PacketBuffer4initEPhii
IN: _ZN12PacketBufferC2Ei
IN: _ZN13ManagedStringC2Ev
IN: _ZN13MicroBitEventC2Ev
IN: _ZN13MicroBitImage4initEssPKh
IN: _ZN13MicroBitImage5clearEv
IN: _ZN13MicroBitImageC1Ess
IN: _ZN13MicroBitImageC2Ev
IN: _ZN14MicroBitSerial4baudEi
IN: _ZN14MicroBitSerialC2E7PinNameS0_hh
IN: _ZN15MicroBitCompass12writeCommandEhh
IN: _ZN15MicroBitCompass4initEtt
IN: _ZN15MicroBitCompass9configureEv
IN: _ZN15MicroBitCompassC2ER11MicroBitI2CR21MicroBitAccelerometertt
IN: _ZN15MicroBitDisplay7disableEv
IN: _ZN15MicroBitDisplay9setEnableEb
IN: _ZN15MicroBitDisplayC2EtRK9MatrixMap
IN: _ZN16MicroBitListenerD1Ev
IN: _ZN21MicroBitAccelerometer12writeCommandEhh
IN: _ZN21MicroBitAccelerometer9configureEv
IN: _ZN21MicroBitAccelerometerC1ER11MicroBitI2Ctt
IN: _ZN25MicroBitCompassCalibratorC1ER15MicroBitCompassR21MicroBitAccelerometerR15MicroBitDisplay
IN: _ZN4mbed10SerialBase10_base_putcEi
IN: _ZN4mbed10SerialBase4baudEi
IN: _ZN4mbed10SerialBase6attachEPFvvENS0_7IrqTypeE
IN: _ZN4mbed10SerialBaseC2E7PinNameS1_
IN: _ZN4mbed10TimerEvent6insertEm
IN: _ZN4mbed10TimerEvent6removeEv
IN: _ZN4mbed10TimerEventC2Ev
IN: _ZN4mbed3I2C5writeEiPKcib
IN: _ZN4mbed3I2C6aquireEv
IN: _ZN4mbed3I2CC2E7PinNameS1_
IN: _ZN4mbed5Timer5resetEv
IN: _ZN4mbed5Timer5startEv
IN: _ZN4mbed5Timer7read_usEv
IN: _ZN4mbed5Timer9slicetimeEv
IN: _ZN4mbed5TimerC1Ev
IN: _ZN4mbed6Ticker5setupEm
IN: _ZN4mbed9DigitalInC1E7PinName
IN: _ZN4mbed9RawSerial4putcEi
IN: _ZN4mbed9RawSerialC1E7PinNameS1_
IN: _ZdlPv
IN: _ZdlPvj
IN: __aeabi_atexit
IN: __aeabi_uidivmod
IN: __cxa_atexit
IN: __libc_init_array
IN: __malloc_lock
IN: __malloc_unlock
IN: __register_exitproc
IN: __udivsi3
IN: __wrap_main
IN: _free_r
IN: _gpio_init_in
IN: _init
IN: _mainCRTStartup
IN: _malloc_r
IN: _sbrk
IN: _sbrk_r
IN: checkError
IN: find_qstr
IN: first_page
IN: frame_dummy
IN: free
IN: gc_alloc
IN: gc_free
IN: gc_init
IN: get_us_ticker_data
IN: gpio_dir
IN: gpio_init
IN: gpio_init_in
IN: gpio_mode
IN: i2c_do_write
IN: i2c_frequency
IN: i2c_init
IN: i2c_reset
IN: i2c_write
IN: last_page
IN: m_free
IN: m_malloc
IN: m_malloc0
IN: main
IN: malloc
IN: mbed_main
IN: mbed_sdk_init
IN: memcpy
IN: memset
IN: microbit_compass_init
IN: microbit_display_init
IN: microbit_file_open
IN: microbit_filesystem_init
IN: microbit_find_file
IN: microbit_pin_init
IN: module_attr
IN: mp_builtin___import__
IN: mp_hal_init
IN: mp_hal_stdin_rx_chr
IN: mp_hal_stdout_tx_str
IN: mp_hal_stdout_tx_strn
IN: mp_import_all
IN: mp_import_name
IN: mp_init
IN: mp_load_method_maybe
IN: mp_map_init
IN: mp_map_lookup
IN: mp_map_rehash
IN: mp_module_get
IN: mp_obj_dict_get_map
IN: mp_obj_dict_init
IN: mp_obj_dict_store
IN: mp_obj_get_type
IN: mp_obj_module_get_globals
IN: mp_obj_str_get_data
IN: mp_obj_str_get_data_no_check
IN: mp_obj_str_get_qstr
IN: mp_stack_set_limit
IN: mp_stack_set_top
IN: mp_store_name
IN: nrf_delay_us
IN: nrf_nvmc_write_byte
IN: persistent_write_byte_unchecked
IN: pin_mode
IN: port_dir
IN: port_init
IN: port_mode
IN: pwm_init
IN: pwm_start
IN: pyexec_friendly_repl
IN: qstr_data
IN: qstr_hash
IN: qstr_init
IN: qstr_str
IN: readline
IN: readline_auto_indent
IN: readline_init
IN: readline_init0
IN: serial_baud
IN: serial_baud.part.0
IN: serial_init
IN: serial_irq_handler
IN: serial_irq_set
IN: serial_putc
IN: set_ticker_callback
IN: strchr
IN: strlen
IN: ticker_init
IN: ticker_insert_event
IN: ticker_read
IN: ticker_remove_event
IN: ticker_set_handler
IN: ticker_start
IN: ticker_stop
IN: tmr1_getCounter64
IN: twi_master_clear_bus
IN: twi_master_init
IN: twi_master_init_and_clear
IN: us_ticker_init
IN: us_ticker_read
IN: us_ticker_set_interrupt
IN: vstr_init
